; Function Attrs: mustprogress nofree norecurse nosync nounwind willreturn memory(read, argmem: readwrite, inaccessiblemem: none) uwtable
define hidden noundef zeroext i1 @_ZNK8seq_util3rex7is_loopEPK4exprRPS1_S5_S5_(ptr noundef nonnull readonly align 8 captures(none) dereferenceable(80) %0, ptr noundef readonly captures(none) %1, ptr noundef nonnull writeonly align 8 captures(none) dereferenceable(8) %2, ptr noundef nonnull writeonly align 8 captures(none) dereferenceable(8) %3, ptr noundef nonnull writeonly align 8 captures(none) dereferenceable(8) %4) local_unnamed_addr #13 align 2 {
  %6 = getelementptr inbounds nuw i8, ptr %0, i64 16
  %7 = load i32, ptr %6, align 8, !tbaa !207
  %8 = getelementptr inbounds nuw i8, ptr %1, i64 4
  %9 = load i32, ptr %8, align 4
  %10 = and i32 %9, 65535
  %11 = icmp eq i32 %10, 0
  br i1 %11, label %12, label %_ZNK8seq_util3rex7is_loopEPK4expr.exit.thread

12:                                               ; preds = %5
  %13 = getelementptr inbounds nuw i8, ptr %1, i64 16
  %14 = load ptr, ptr %13, align 8, !tbaa !186
  %15 = getelementptr inbounds nuw i8, ptr %14, i64 24
  %16 = load ptr, ptr %15, align 8, !tbaa !41
  %.not.i.i.i.i = icmp eq ptr %16, null
  br i1 %.not.i.i.i.i, label %_ZNK8seq_util3rex7is_loopEPK4expr.exit.thread, label %_ZNK8seq_util3rex7is_loopEPK4expr.exit

_ZNK8seq_util3rex7is_loopEPK4expr.exit:           ; preds = %12
  %17 = load i32, ptr %16, align 8, !tbaa !44
  %18 = icmp eq i32 %17, %7
  %19 = getelementptr inbounds nuw i8, ptr %16, i64 4
  %20 = load i32, ptr %19, align 4
  %21 = icmp eq i32 %20, 32
  %22 = select i1 %18, i1 %21, i1 false
  br i1 %22, label %23, label %_ZNK8seq_util3rex7is_loopEPK4expr.exit.thread

23:                                               ; preds = %_ZNK8seq_util3rex7is_loopEPK4expr.exit
  %24 = getelementptr inbounds nuw i8, ptr %1, i64 24
  %25 = load i32, ptr %24, align 8, !tbaa !191
  %26 = icmp eq i32 %25, 3
  br i1 %26, label %27, label %_ZNK8seq_util3rex7is_loopEPK4expr.exit.thread

27:                                               ; preds = %23
  %28 = getelementptr inbounds nuw i8, ptr %1, i64 32
  %29 = load ptr, ptr %28, align 8, !tbaa !178
  store ptr %29, ptr %2, align 8, !tbaa !178
  %30 = getelementptr inbounds nuw i8, ptr %1, i64 40
  %31 = load ptr, ptr %30, align 8, !tbaa !178
  store ptr %31, ptr %3, align 8, !tbaa !178
  %32 = getelementptr inbounds nuw i8, ptr %1, i64 48
  %33 = load ptr, ptr %32, align 8, !tbaa !178
  store ptr %33, ptr %4, align 8, !tbaa !178
  br label %_ZNK8seq_util3rex7is_loopEPK4expr.exit.thread

_ZNK8seq_util3rex7is_loopEPK4expr.exit.thread:    ; preds = %23, %12, %5, %_ZNK8seq_util3rex7is_loopEPK4expr.exit, %27
  %.1 = phi i1 [ true, %27 ], [ false, %_ZNK8seq_util3rex7is_loopEPK4expr.exit ], [ false, %5 ], [ false, %12 ], [ false, %23 ]
  ret i1 %.1
}